target datalayout = "e-m:e-p270:32:32-p271:32:32-p272:64:64-i64:64-i128:128-f80:128-n8:16:32:64-S128"
target triple = "x86_64-pc-linux-gnu"

%struct._lv_table_t = type { %struct._lv_obj_t, i32, i32, ptr, ptr, ptr, i32, i32 }
%struct._lv_obj_t = type { ptr, ptr, ptr, ptr, ptr, %struct.lv_area_t, i32, i16, i16 }
%struct.lv_area_t = type { i32, i32, i32, i32 }
%struct._lv_table_cell_t = type { i32, ptr, [1 x i8] }

; Function Attrs: inlinehint nounwind uwtable
define internal void @lv_memzero(ptr noundef %0, i64 noundef %1) #4 {
  %3 = alloca ptr, align 8
  %4 = alloca i64, align 8
  store ptr %0, ptr %3, align 8, !tbaa !37
  store i64 %1, ptr %4, align 8, !tbaa !48
  %5 = load ptr, ptr %3, align 8, !tbaa !37
  %6 = load i64, ptr %4, align 8, !tbaa !48
  call void @lv_memset(ptr noundef %5, i8 noundef zeroext 0, i64 noundef %6)
  ret void
}

; Function Attrs: nounwind uwtable
define void @lv_table_set_column_count(ptr noundef %0, i32 noundef %1) #0 {
  %3 = alloca ptr, align 8
  %4 = alloca i32, align 4
  %5 = alloca ptr, align 8
  %6 = alloca i32, align 4
  %7 = alloca i32, align 4
  %8 = alloca ptr, align 8
  %9 = alloca i32, align 4
  %10 = alloca i32, align 4
  %11 = alloca i32, align 4
  %12 = alloca i32, align 4
  %13 = alloca i32, align 4
  %14 = alloca i32, align 4
  %15 = alloca i32, align 4
  %16 = alloca i32, align 4
  store ptr %0, ptr %3, align 8, !tbaa !8
  store i32 %1, ptr %4, align 4, !tbaa !25
  br label %17

17:                                               ; preds = %2
  %18 = load ptr, ptr %3, align 8, !tbaa !8
  %19 = icmp ne ptr %18, null
  br i1 %19, label %24, label %20

20:                                               ; preds = %17
  br label %21

21:                                               ; preds = %20
  br label %22

22:                                               ; preds = %21
  br label %23

23:                                               ; preds = %22, %23
  br label %23

24:                                               ; preds = %17
  br label %25

25:                                               ; preds = %24
  call void @llvm.lifetime.start.p0(i64 8, ptr %5) #6
  %26 = load ptr, ptr %3, align 8, !tbaa !8
  store ptr %26, ptr %5, align 8, !tbaa !10
  %27 = load ptr, ptr %5, align 8, !tbaa !10
  %28 = getelementptr inbounds nuw %struct._lv_table_t, ptr %27, i32 0, i32 1
  %29 = load i32, ptr %28, align 8, !tbaa !12
  %30 = load i32, ptr %4, align 4, !tbaa !25
  %31 = icmp eq i32 %29, %30
  br i1 %31, label %32, label %33

32:                                               ; preds = %25
  store i32 1, ptr %6, align 4
  br label %238

33:                                               ; preds = %25
  call void @llvm.lifetime.start.p0(i64 4, ptr %7) #6
  %34 = load ptr, ptr %5, align 8, !tbaa !10
  %35 = getelementptr inbounds nuw %struct._lv_table_t, ptr %34, i32 0, i32 1
  %36 = load i32, ptr %35, align 8, !tbaa !12
  store i32 %36, ptr %7, align 4, !tbaa !25
  %37 = load i32, ptr %4, align 4, !tbaa !25
  %38 = load ptr, ptr %5, align 8, !tbaa !10
  %39 = getelementptr inbounds nuw %struct._lv_table_t, ptr %38, i32 0, i32 1
  store i32 %37, ptr %39, align 8, !tbaa !12
  call void @llvm.lifetime.start.p0(i64 8, ptr %8) #6
  %40 = load ptr, ptr %5, align 8, !tbaa !10
  %41 = getelementptr inbounds nuw %struct._lv_table_t, ptr %40, i32 0, i32 2
  %42 = load i32, ptr %41, align 4, !tbaa !22
  %43 = load ptr, ptr %5, align 8, !tbaa !10
  %44 = getelementptr inbounds nuw %struct._lv_table_t, ptr %43, i32 0, i32 1
  %45 = load i32, ptr %44, align 8, !tbaa !12
  %46 = mul i32 %42, %45
  %47 = zext i32 %46 to i64
  %48 = mul i64 %47, 8
  %49 = call ptr @lv_malloc(i64 noundef %48)
  store ptr %49, ptr %8, align 8, !tbaa !50
  br label %50

50:                                               ; preds = %33
  %51 = load ptr, ptr %8, align 8, !tbaa !50
  %52 = icmp ne ptr %51, null
  br i1 %52, label %59, label %53

53:                                               ; preds = %50
  br label %54

54:                                               ; preds = %53
  br label %55

55:                                               ; preds = %54
  br label %56

56:                                               ; preds = %55
  br label %57

57:                                               ; preds = %58, %56
  br label %58

58:                                               ; preds = %57
  br label %57

59:                                               ; preds = %50
  br label %60

60:                                               ; preds = %59
  br label %61

61:                                               ; preds = %60
  %62 = load ptr, ptr %8, align 8, !tbaa !50
  %63 = icmp eq ptr %62, null
  br i1 %63, label %64, label %65

64:                                               ; preds = %61
  store i32 1, ptr %6, align 4
  br label %237

65:                                               ; preds = %61
  call void @llvm.lifetime.start.p0(i64 4, ptr %9) #6
  %66 = load ptr, ptr %5, align 8, !tbaa !10
  %67 = getelementptr inbounds nuw %struct._lv_table_t, ptr %66, i32 0, i32 1
  %68 = load i32, ptr %67, align 8, !tbaa !12
  %69 = load ptr, ptr %5, align 8, !tbaa !10
  %70 = getelementptr inbounds nuw %struct._lv_table_t, ptr %69, i32 0, i32 2
  %71 = load i32, ptr %70, align 4, !tbaa !22
  %72 = mul i32 %68, %71
  store i32 %72, ptr %9, align 4, !tbaa !25
  %73 = load ptr, ptr %8, align 8, !tbaa !50
  %74 = load i32, ptr %9, align 4, !tbaa !25
  %75 = zext i32 %74 to i64
  %76 = mul i64 %75, 8
  call void @lv_memzero(ptr noundef %73, i64 noundef %76)
  call void @llvm.lifetime.start.p0(i64 4, ptr %10) #6
  call void @llvm.lifetime.start.p0(i64 4, ptr %11) #6
  call void @llvm.lifetime.start.p0(i64 4, ptr %12) #6
  %77 = load i32, ptr %7, align 4, !tbaa !25
  %78 = load i32, ptr %4, align 4, !tbaa !25
  %79 = icmp ult i32 %77, %78
  br i1 %79, label %80, label %82

80:                                               ; preds = %65
  %81 = load i32, ptr %7, align 4, !tbaa !25
  br label %84

82:                                               ; preds = %65
  %83 = load i32, ptr %4, align 4, !tbaa !25
  br label %84

84:                                               ; preds = %82, %80
  %85 = phi i32 [ %81, %80 ], [ %83, %82 ]
  store i32 %85, ptr %12, align 4, !tbaa !25
  call void @llvm.lifetime.start.p0(i64 4, ptr %13) #6
  store i32 0, ptr %13, align 4, !tbaa !25
  br label %86

86:                                               ; preds = %180, %84
  %87 = load i32, ptr %13, align 4, !tbaa !25
  %88 = load ptr, ptr %5, align 8, !tbaa !10
  %89 = getelementptr inbounds nuw %struct._lv_table_t, ptr %88, i32 0, i32 2
  %90 = load i32, ptr %89, align 4, !tbaa !22
  %91 = icmp ult i32 %87, %90
  br i1 %91, label %92, label %183

92:                                               ; preds = %86
  %93 = load i32, ptr %13, align 4, !tbaa !25
  %94 = load i32, ptr %7, align 4, !tbaa !25
  %95 = mul i32 %93, %94
  store i32 %95, ptr %10, align 4, !tbaa !25
  %96 = load i32, ptr %13, align 4, !tbaa !25
  %97 = load i32, ptr %4, align 4, !tbaa !25
  %98 = mul i32 %96, %97
  store i32 %98, ptr %11, align 4, !tbaa !25
  %99 = load ptr, ptr %8, align 8, !tbaa !50
  %100 = load i32, ptr %11, align 4, !tbaa !25
  %101 = zext i32 %100 to i64
  %102 = getelementptr inbounds nuw ptr, ptr %99, i64 %101
  %103 = load ptr, ptr %5, align 8, !tbaa !10
  %104 = getelementptr inbounds nuw %struct._lv_table_t, ptr %103, i32 0, i32 3
  %105 = load ptr, ptr %104, align 8, !tbaa !26
  %106 = load i32, ptr %10, align 4, !tbaa !25
  %107 = zext i32 %106 to i64
  %108 = getelementptr inbounds nuw ptr, ptr %105, i64 %107
  %109 = load i32, ptr %12, align 4, !tbaa !25
  %110 = zext i32 %109 to i64
  %111 = mul i64 8, %110
  %112 = call ptr @lv_memcpy(ptr noundef %102, ptr noundef %108, i64 noundef %111)
  call void @llvm.lifetime.start.p0(i64 4, ptr %14) #6
  store i32 0, ptr %14, align 4, !tbaa !25
  br label %113

113:                                              ; preds = %176, %92
  %114 = load i32, ptr %14, align 4, !tbaa !25
  %115 = load i32, ptr %7, align 4, !tbaa !25
  %116 = load i32, ptr %4, align 4, !tbaa !25
  %117 = sub nsw i32 %115, %116
  %118 = icmp slt i32 %114, %117
  br i1 %118, label %119, label %179

119:                                              ; preds = %113
  call void @llvm.lifetime.start.p0(i64 4, ptr %15) #6
  %120 = load i32, ptr %10, align 4, !tbaa !25
  %121 = load i32, ptr %12, align 4, !tbaa !25
  %122 = add i32 %120, %121
  %123 = load i32, ptr %14, align 4, !tbaa !25
  %124 = add i32 %122, %123
  store i32 %124, ptr %15, align 4, !tbaa !25
  %125 = load ptr, ptr %5, align 8, !tbaa !10
  %126 = getelementptr inbounds nuw %struct._lv_table_t, ptr %125, i32 0, i32 3
  %127 = load ptr, ptr %126, align 8, !tbaa !26
  %128 = load i32, ptr %15, align 4, !tbaa !25
  %129 = zext i32 %128 to i64
  %130 = getelementptr inbounds nuw ptr, ptr %127, i64 %129
  %131 = load ptr, ptr %130, align 8, !tbaa !27
  %132 = icmp ne ptr %131, null
  br i1 %132, label %133, label %162

133:                                              ; preds = %119
  %134 = load ptr, ptr %5, align 8, !tbaa !10
  %135 = getelementptr inbounds nuw %struct._lv_table_t, ptr %134, i32 0, i32 3
  %136 = load ptr, ptr %135, align 8, !tbaa !26
  %137 = load i32, ptr %15, align 4, !tbaa !25
  %138 = zext i32 %137 to i64
  %139 = getelementptr inbounds nuw ptr, ptr %136, i64 %138
  %140 = load ptr, ptr %139, align 8, !tbaa !27
  %141 = getelementptr inbounds nuw %struct._lv_table_cell_t, ptr %140, i32 0, i32 1
  %142 = load ptr, ptr %141, align 8, !tbaa !31
  %143 = icmp ne ptr %142, null
  br i1 %143, label %144, label %162

144:                                              ; preds = %133
  %145 = load ptr, ptr %5, align 8, !tbaa !10
  %146 = getelementptr inbounds nuw %struct._lv_table_t, ptr %145, i32 0, i32 3
  %147 = load ptr, ptr %146, align 8, !tbaa !26
  %148 = load i32, ptr %15, align 4, !tbaa !25
  %149 = zext i32 %148 to i64
  %150 = getelementptr inbounds nuw ptr, ptr %147, i64 %149
  %151 = load ptr, ptr %150, align 8, !tbaa !27
  %152 = getelementptr inbounds nuw %struct._lv_table_cell_t, ptr %151, i32 0, i32 1
  %153 = load ptr, ptr %152, align 8, !tbaa !31
  call void @lv_free(ptr noundef %153)
  %154 = load ptr, ptr %5, align 8, !tbaa !10
  %155 = getelementptr inbounds nuw %struct._lv_table_t, ptr %154, i32 0, i32 3
  %156 = load ptr, ptr %155, align 8, !tbaa !26
  %157 = load i32, ptr %15, align 4, !tbaa !25
  %158 = zext i32 %157 to i64
  %159 = getelementptr inbounds nuw ptr, ptr %156, i64 %158
  %160 = load ptr, ptr %159, align 8, !tbaa !27
  %161 = getelementptr inbounds nuw %struct._lv_table_cell_t, ptr %160, i32 0, i32 1
  store ptr null, ptr %161, align 8, !tbaa !31
  br label %162

162:                                              ; preds = %144, %133, %119
  %163 = load ptr, ptr %5, align 8, !tbaa !10
  %164 = getelementptr inbounds nuw %struct._lv_table_t, ptr %163, i32 0, i32 3
  %165 = load ptr, ptr %164, align 8, !tbaa !26
  %166 = load i32, ptr %15, align 4, !tbaa !25
  %167 = zext i32 %166 to i64
  %168 = getelementptr inbounds nuw ptr, ptr %165, i64 %167
  %169 = load ptr, ptr %168, align 8, !tbaa !27
  call void @lv_free(ptr noundef %169)
  %170 = load ptr, ptr %5, align 8, !tbaa !10
  %171 = getelementptr inbounds nuw %struct._lv_table_t, ptr %170, i32 0, i32 3
  %172 = load ptr, ptr %171, align 8, !tbaa !26
  %173 = load i32, ptr %15, align 4, !tbaa !25
  %174 = zext i32 %173 to i64
  %175 = getelementptr inbounds nuw ptr, ptr %172, i64 %174
  store ptr null, ptr %175, align 8, !tbaa !27
  call void @llvm.lifetime.end.p0(i64 4, ptr %15) #6
  br label %176

176:                                              ; preds = %162
  %177 = load i32, ptr %14, align 4, !tbaa !25
  %178 = add nsw i32 %177, 1
  store i32 %178, ptr %14, align 4, !tbaa !25
  br label %113, !llvm.loop !51

179:                                              ; preds = %113
  call void @llvm.lifetime.end.p0(i64 4, ptr %14) #6
  br label %180

180:                                              ; preds = %179
  %181 = load i32, ptr %13, align 4, !tbaa !25
  %182 = add i32 %181, 1
  store i32 %182, ptr %13, align 4, !tbaa !25
  br label %86, !llvm.loop !52

183:                                              ; preds = %86
  %184 = load ptr, ptr %5, align 8, !tbaa !10
  %185 = getelementptr inbounds nuw %struct._lv_table_t, ptr %184, i32 0, i32 3
  %186 = load ptr, ptr %185, align 8, !tbaa !26
  call void @lv_free(ptr noundef %186)
  %187 = load ptr, ptr %8, align 8, !tbaa !50
  %188 = load ptr, ptr %5, align 8, !tbaa !10
  %189 = getelementptr inbounds nuw %struct._lv_table_t, ptr %188, i32 0, i32 3
  store ptr %187, ptr %189, align 8, !tbaa !26
  %190 = load ptr, ptr %5, align 8, !tbaa !10
  %191 = getelementptr inbounds nuw %struct._lv_table_t, ptr %190, i32 0, i32 5
  %192 = load ptr, ptr %191, align 8, !tbaa !23
  %193 = load i32, ptr %4, align 4, !tbaa !25
  %194 = zext i32 %193 to i64
  %195 = mul i64 %194, 4
  %196 = call ptr @lv_realloc(ptr noundef %192, i64 noundef %195)
  %197 = load ptr, ptr %5, align 8, !tbaa !10
  %198 = getelementptr inbounds nuw %struct._lv_table_t, ptr %197, i32 0, i32 5
  store ptr %196, ptr %198, align 8, !tbaa !23
  br label %199

199:                                              ; preds = %183
  %200 = load ptr, ptr %5, align 8, !tbaa !10
  %201 = getelementptr inbounds nuw %struct._lv_table_t, ptr %200, i32 0, i32 5
  %202 = load ptr, ptr %201, align 8, !tbaa !23
  %203 = icmp ne ptr %202, null
  br i1 %203, label %210, label %204

204:                                              ; preds = %199
  br label %205

205:                                              ; preds = %204
  br label %206

206:                                              ; preds = %205
  br label %207

207:                                              ; preds = %206
  br label %208

208:                                              ; preds = %209, %207
  br label %209

209:                                              ; preds = %208
  br label %208

210:                                              ; preds = %199
  br label %211

211:                                              ; preds = %210
  br label %212

212:                                              ; preds = %211
  %213 = load ptr, ptr %5, align 8, !tbaa !10
  %214 = getelementptr inbounds nuw %struct._lv_table_t, ptr %213, i32 0, i32 5
  %215 = load ptr, ptr %214, align 8, !tbaa !23
  %216 = icmp eq ptr %215, null
  br i1 %216, label %217, label %218

217:                                              ; preds = %212
  store i32 1, ptr %6, align 4
  br label %236

218:                                              ; preds = %212
  call void @llvm.lifetime.start.p0(i64 4, ptr %16) #6
  %219 = load i32, ptr %7, align 4, !tbaa !25
  store i32 %219, ptr %16, align 4, !tbaa !25
  br label %220

220:                                              ; preds = %231, %218
  %221 = load i32, ptr %16, align 4, !tbaa !25
  %222 = load i32, ptr %4, align 4, !tbaa !25
  %223 = icmp ult i32 %221, %222
  br i1 %223, label %224, label %234

224:                                              ; preds = %220
  %225 = load ptr, ptr %5, align 8, !tbaa !10
  %226 = getelementptr inbounds nuw %struct._lv_table_t, ptr %225, i32 0, i32 5
  %227 = load ptr, ptr %226, align 8, !tbaa !23
  %228 = load i32, ptr %16, align 4, !tbaa !25
  %229 = zext i32 %228 to i64
  %230 = getelementptr inbounds nuw i32, ptr %227, i64 %229
  store i32 130, ptr %230, align 4, !tbaa !25
  br label %231

231:                                              ; preds = %224
  %232 = load i32, ptr %16, align 4, !tbaa !25
  %233 = add i32 %232, 1
  store i32 %233, ptr %16, align 4, !tbaa !25
  br label %220, !llvm.loop !53

234:                                              ; preds = %220
  %235 = load ptr, ptr %3, align 8, !tbaa !8
  call void @refr_size_form_row(ptr noundef %235, i32 noundef 0)
  call void @llvm.lifetime.end.p0(i64 4, ptr %16) #6
  store i32 0, ptr %6, align 4
  br label %236

236:                                              ; preds = %234, %217
  call void @llvm.lifetime.end.p0(i64 4, ptr %13) #6
  call void @llvm.lifetime.end.p0(i64 4, ptr %12) #6
  call void @llvm.lifetime.end.p0(i64 4, ptr %11) #6
  call void @llvm.lifetime.end.p0(i64 4, ptr %10) #6
  call void @llvm.lifetime.end.p0(i64 4, ptr %9) #6
  br label %237

237:                                              ; preds = %236, %64
  call void @llvm.lifetime.end.p0(i64 8, ptr %8) #6
  call void @llvm.lifetime.end.p0(i64 4, ptr %7) #6
  br label %238

238:                                              ; preds = %237, %32
  call void @llvm.lifetime.end.p0(i64 8, ptr %5) #6
  %239 = load i32, ptr %6, align 4
  switch i32 %239, label %241 [
    i32 0, label %240
    i32 1, label %240
  ]

240:                                              ; preds = %238, %238
  ret void

241:                                              ; preds = %238
  unreachable
}