; Function Attrs: nounwind uwtable
define void @lv_table_set_column_count(ptr noundef %0, i32 noundef %1) local_unnamed_addr #0 {
  %.not = icmp eq ptr %0, null
  br i1 %.not, label %.preheader, label %3

.preheader:                                       ; preds = %2, %.preheader
  br label %.preheader

3:                                                ; preds = %2
  %4 = getelementptr inbounds nuw i8, ptr %0, i64 64
  %5 = load i32, ptr %4, align 8, !tbaa !3
  %.fr = freeze i32 %5
  %6 = icmp eq i32 %.fr, %1
  br i1 %6, label %81, label %7

7:                                                ; preds = %3
  store i32 %1, ptr %4, align 8, !tbaa !3
  %8 = getelementptr inbounds nuw i8, ptr %0, i64 68
  %9 = load i32, ptr %8, align 4, !tbaa !18
  %10 = mul i32 %9, %1
  %11 = zext i32 %10 to i64
  %12 = shl nuw nsw i64 %11, 3
  %13 = tail call ptr @lv_malloc(i64 noundef %12) #9
  %.not72 = icmp eq ptr %13, null
  br i1 %.not72, label %.preheader76, label %14

.preheader76:                                     ; preds = %7, %.preheader76
  br label %.preheader76

14:                                               ; preds = %7
  %15 = load i32, ptr %4, align 8, !tbaa !3
  %16 = load i32, ptr %8, align 4, !tbaa !18
  %17 = mul i32 %16, %15
  %18 = zext i32 %17 to i64
  %19 = shl nuw nsw i64 %18, 3
  tail call void @lv_memset(ptr noundef nonnull %13, i8 noundef zeroext 0, i64 noundef range(i64 0, 34359738361) %19) #9
  %20 = tail call i32 @llvm.umin.i32(i32 %.fr, i32 %1)
  %21 = load i32, ptr %8, align 4, !tbaa !18
  %.not85 = icmp eq i32 %21, 0
  br i1 %.not85, label %._crit_edge83, label %.lr.ph82

.lr.ph82:                                         ; preds = %14
  %22 = getelementptr inbounds nuw i8, ptr %0, i64 72
  %23 = zext i32 %20 to i64
  %24 = shl nuw nsw i64 %23, 3
  %25 = sub i32 %.fr, %1
  %26 = icmp sgt i32 %25, 0
  br i1 %26, label %.lr.ph.us.preheader, label %.lr.ph82.split

.lr.ph.us.preheader:                              ; preds = %.lr.ph82
  %.pre = load ptr, ptr %22, align 8, !tbaa !22
  %wide.trip.count = zext nneg i32 %25 to i64
  br label %.lr.ph.us

.lr.ph.us:                                        ; preds = %.lr.ph.us.preheader, %._crit_edge.us
  %27 = phi ptr [ %.pre, %.lr.ph.us.preheader ], [ %54, %._crit_edge.us ]
  %indvars.iv92 = phi i64 [ 0, %.lr.ph.us.preheader ], [ %indvars.iv.next93, %._crit_edge.us ]
  %28 = trunc nuw i64 %indvars.iv92 to i32
  %29 = mul i32 %.fr, %28
  %30 = mul i32 %1, %28
  %31 = zext i32 %30 to i64
  %32 = getelementptr inbounds nuw ptr, ptr %13, i64 %31
  %33 = zext i32 %29 to i64
  %34 = getelementptr inbounds nuw ptr, ptr %27, i64 %33
  %35 = tail call ptr @lv_memcpy(ptr noundef nonnull %32, ptr noundef %34, i64 noundef %24) #9
  %36 = add i32 %29, %20
  %.pre100 = load ptr, ptr %22, align 8, !tbaa !22
  br label %37

37:                                               ; preds = %.lr.ph.us, %52
  %38 = phi ptr [ %.pre100, %.lr.ph.us ], [ %54, %52 ]
  %indvars.iv89 = phi i64 [ 0, %.lr.ph.us ], [ %indvars.iv.next90, %52 ]
  %39 = trunc nuw nsw i64 %indvars.iv89 to i32
  %40 = add i32 %36, %39
  %41 = zext i32 %40 to i64
  %42 = getelementptr inbounds nuw ptr, ptr %38, i64 %41
  %43 = load ptr, ptr %42, align 8, !tbaa !23
  %.not74.us = icmp eq ptr %43, null
  br i1 %.not74.us, label %52, label %44

44:                                               ; preds = %37
  %45 = getelementptr inbounds nuw i8, ptr %43, i64 8
  %46 = load ptr, ptr %45, align 8, !tbaa !27
  %.not75.us = icmp eq ptr %46, null
  br i1 %.not75.us, label %52, label %47

47:                                               ; preds = %44
  tail call void @lv_free(ptr noundef nonnull %46) #9
  %48 = load ptr, ptr %22, align 8, !tbaa !22
  %49 = getelementptr inbounds nuw ptr, ptr %48, i64 %41
  %50 = load ptr, ptr %49, align 8, !tbaa !23
  %51 = getelementptr inbounds nuw i8, ptr %50, i64 8
  store ptr null, ptr %51, align 8, !tbaa !27
  br label %52

52:                                               ; preds = %47, %44, %37
  %53 = phi ptr [ %50, %47 ], [ %43, %44 ], [ null, %37 ]
  tail call void @lv_free(ptr noundef %53) #9
  %54 = load ptr, ptr %22, align 8, !tbaa !22
  %55 = getelementptr inbounds nuw ptr, ptr %54, i64 %41
  store ptr null, ptr %55, align 8, !tbaa !23
  %indvars.iv.next90 = add nuw nsw i64 %indvars.iv89, 1
  %exitcond.not = icmp eq i64 %indvars.iv.next90, %wide.trip.count
  br i1 %exitcond.not, label %._crit_edge.us, label %37, !llvm.loop !42

._crit_edge.us:                                   ; preds = %52
  %indvars.iv.next93 = add nuw nsw i64 %indvars.iv92, 1
  %56 = load i32, ptr %8, align 4, !tbaa !18
  %57 = zext i32 %56 to i64
  %58 = icmp samesign ult i64 %indvars.iv.next93, %57
  br i1 %58, label %.lr.ph.us, label %._crit_edge83, !llvm.loop !43

.lr.ph82.split:                                   ; preds = %.lr.ph82, %.lr.ph82.split
  %indvars.iv = phi i64 [ %indvars.iv.next, %.lr.ph82.split ], [ 0, %.lr.ph82 ]
  %59 = trunc nuw i64 %indvars.iv to i32
  %60 = mul i32 %.fr, %59
  %61 = mul i32 %1, %59
  %62 = zext i32 %61 to i64
  %63 = getelementptr inbounds nuw ptr, ptr %13, i64 %62
  %64 = load ptr, ptr %22, align 8, !tbaa !22
  %65 = zext i32 %60 to i64
  %66 = getelementptr inbounds nuw ptr, ptr %64, i64 %65
  %67 = tail call ptr @lv_memcpy(ptr noundef nonnull %63, ptr noundef %66, i64 noundef %24) #9
  %indvars.iv.next = add nuw nsw i64 %indvars.iv, 1
  %68 = load i32, ptr %8, align 4, !tbaa !18
  %69 = zext i32 %68 to i64
  %70 = icmp samesign ult i64 %indvars.iv.next, %69
  br i1 %70, label %.lr.ph82.split, label %._crit_edge83, !llvm.loop !43

._crit_edge83:                                    ; preds = %.lr.ph82.split, %._crit_edge.us, %14
  %71 = getelementptr inbounds nuw i8, ptr %0, i64 72
  %72 = load ptr, ptr %71, align 8, !tbaa !22
  tail call void @lv_free(ptr noundef %72) #9
  store ptr %13, ptr %71, align 8, !tbaa !22
  %73 = getelementptr inbounds nuw i8, ptr %0, i64 88
  %74 = load ptr, ptr %73, align 8, !tbaa !19
  %75 = zext i32 %1 to i64
  %76 = shl nuw nsw i64 %75, 2
  %77 = tail call ptr @lv_realloc(ptr noundef %74, i64 noundef %76) #9
  store ptr %77, ptr %73, align 8, !tbaa !19
  %.not73 = icmp eq ptr %77, null
  br i1 %.not73, label %.preheader77, label %.preheader78

.preheader78:                                     ; preds = %._crit_edge83
  %78 = icmp ult i32 %.fr, %1
  br i1 %78, label %.lr.ph.preheader, label %._crit_edge

.lr.ph.preheader:                                 ; preds = %.preheader78
  %79 = zext i32 %.fr to i64
  br label %.lr.ph

.preheader77:                                     ; preds = %._crit_edge83, %.preheader77
  br label %.preheader77

.lr.ph:                                           ; preds = %.lr.ph.preheader, %.lr.ph
  %indvars.iv95 = phi i64 [ %79, %.lr.ph.preheader ], [ %indvars.iv.next96, %.lr.ph ]
  %80 = getelementptr inbounds nuw i32, ptr %77, i64 %indvars.iv95
  store i32 130, ptr %80, align 4, !tbaa !21
  %indvars.iv.next96 = add nuw nsw i64 %indvars.iv95, 1
  %exitcond99.not = icmp eq i64 %indvars.iv.next96, %75
  br i1 %exitcond99.not, label %._crit_edge, label %.lr.ph, !llvm.loop !44

._crit_edge:                                      ; preds = %.lr.ph, %.preheader78
  tail call fastcc void @refr_size_form_row(ptr noundef nonnull %0)
  br label %81

81:                                               ; preds = %3, %._crit_edge
  ret void
}